target datalayout = "e-m:e-p270:32:32-p271:32:32-p272:64:64-i64:64-i128:128-f80:128-n8:16:32:64-S128"
target triple = "x86_64-pc-linux-gnu"

%"class.testing::internal::ValuesInIteratorRangeGenerator" = type { %"class.testing::internal::ParamGeneratorInterface", %"class.std::vector.58" }
%"class.testing::internal::ParamGeneratorInterface" = type { ptr }
%"class.std::vector.58" = type { %"struct.std::_Vector_base.59" }
%"struct.std::_Vector_base.59" = type { %"struct.std::_Vector_base<opencv_test::(anonymous namespace)::SGBMModes, std::allocator<opencv_test::(anonymous namespace)::SGBMModes>>::_Vector_impl" }
%"struct.std::_Vector_base<opencv_test::(anonymous namespace)::SGBMModes, std::allocator<opencv_test::(anonymous namespace)::SGBMModes>>::_Vector_impl" = type { %"struct.std::_Vector_base<opencv_test::(anonymous namespace)::SGBMModes, std::allocator<opencv_test::(anonymous namespace)::SGBMModes>>::_Vector_impl_data" }
%"struct.std::_Vector_base<opencv_test::(anonymous namespace)::SGBMModes, std::allocator<opencv_test::(anonymous namespace)::SGBMModes>>::_Vector_impl_data" = type { ptr, ptr, ptr }

; Function Attrs: mustprogress nounwind uwtable
define internal void @_ZNSt15__new_allocatorIN11opencv_test12_GLOBAL__N_19SGBMModesEE10deallocateEPS2_m(ptr noundef nonnull align 1 dereferenceable(1) %0, ptr noundef %1, i64 noundef %2) #9 align 2 {
  %4 = alloca ptr, align 8
  %5 = alloca ptr, align 8
  %6 = alloca i64, align 8
  store ptr %0, ptr %4, align 8, !tbaa !272
  store ptr %1, ptr %5, align 8, !tbaa !85
  store i64 %2, ptr %6, align 8, !tbaa !157
  %7 = load ptr, ptr %5, align 8, !tbaa !85
  call void @_ZdlPv(ptr noundef %7) #30
  ret void
}

; Function Attrs: mustprogress uwtable
define internal void @_ZNSt16allocator_traitsISaIN11opencv_test12_GLOBAL__N_19SGBMModesEEE10deallocateERS3_PS2_m(ptr noundef nonnull align 1 dereferenceable(1) %0, ptr noundef %1, i64 noundef %2) #6 align 2 {
  %4 = alloca ptr, align 8
  %5 = alloca ptr, align 8
  %6 = alloca i64, align 8
  store ptr %0, ptr %4, align 8, !tbaa !268
  store ptr %1, ptr %5, align 8, !tbaa !85
  store i64 %2, ptr %6, align 8, !tbaa !157
  %7 = load ptr, ptr %4, align 8, !tbaa !268
  %8 = load ptr, ptr %5, align 8, !tbaa !85
  %9 = load i64, ptr %6, align 8, !tbaa !157
  call void @_ZNSt15__new_allocatorIN11opencv_test12_GLOBAL__N_19SGBMModesEE10deallocateEPS2_m(ptr noundef nonnull align 1 dereferenceable(1) %7, ptr noundef %8, i64 noundef %9)
  ret void
}

; Function Attrs: mustprogress nounwind uwtable
define internal void @_ZNSt12_Destroy_auxILb1EE9__destroyIPN11opencv_test12_GLOBAL__N_19SGBMModesEEEvT_S6_(ptr noundef %0, ptr noundef %1) #9 align 2 {
  %3 = alloca ptr, align 8
  %4 = alloca ptr, align 8
  store ptr %0, ptr %3, align 8, !tbaa !85
  store ptr %1, ptr %4, align 8, !tbaa !85
  ret void
}

; Function Attrs: mustprogress nounwind uwtable
define internal void @_ZNSt15__new_allocatorIN11opencv_test12_GLOBAL__N_19SGBMModesEED2Ev(ptr noundef nonnull align 1 dereferenceable(1) %0) unnamed_addr #9 align 2 {
  %2 = alloca ptr, align 8
  store ptr %0, ptr %2, align 8, !tbaa !272
  ret void
}

; Function Attrs: mustprogress uwtable
define internal void @_ZNSt12_Vector_baseIN11opencv_test12_GLOBAL__N_19SGBMModesESaIS2_EE13_M_deallocateEPS2_m(ptr noundef nonnull align 8 dereferenceable(24) %0, ptr noundef %1, i64 noundef %2) #6 align 2 {
  %4 = alloca ptr, align 8
  %5 = alloca ptr, align 8
  %6 = alloca i64, align 8
  store ptr %0, ptr %4, align 8, !tbaa !274
  store ptr %1, ptr %5, align 8, !tbaa !85
  store i64 %2, ptr %6, align 8, !tbaa !157
  %7 = load ptr, ptr %4, align 8
  %8 = load ptr, ptr %5, align 8, !tbaa !85
  %9 = icmp ne ptr %8, null
  br i1 %9, label %10, label %14

10:                                               ; preds = %3
  %11 = getelementptr inbounds nuw %"struct.std::_Vector_base.59", ptr %7, i32 0, i32 0
  %12 = load ptr, ptr %5, align 8, !tbaa !85
  %13 = load i64, ptr %6, align 8, !tbaa !157
  call void @_ZNSt16allocator_traitsISaIN11opencv_test12_GLOBAL__N_19SGBMModesEEE10deallocateERS3_PS2_m(ptr noundef nonnull align 1 dereferenceable(1) %11, ptr noundef %12, i64 noundef %13)
  br label %14

14:                                               ; preds = %10, %3
  ret void
}

; Function Attrs: inlinehint mustprogress uwtable
define internal void @_ZSt8_DestroyIPN11opencv_test12_GLOBAL__N_19SGBMModesEEvT_S4_(ptr noundef %0, ptr noundef %1) #11 {
  %3 = alloca ptr, align 8
  %4 = alloca ptr, align 8
  store ptr %0, ptr %3, align 8, !tbaa !85
  store ptr %1, ptr %4, align 8, !tbaa !85
  %5 = load ptr, ptr %3, align 8, !tbaa !85
  %6 = load ptr, ptr %4, align 8, !tbaa !85
  call void @_ZNSt12_Destroy_auxILb1EE9__destroyIPN11opencv_test12_GLOBAL__N_19SGBMModesEEEvT_S6_(ptr noundef %5, ptr noundef %6)
  ret void
}

; Function Attrs: noinline noreturn nounwind uwtable
define linkonce_odr hidden void @__clang_call_terminate(ptr noundef %0) #8 comdat {
  %2 = call ptr @__cxa_begin_catch(ptr %0) #3
  call void @_ZSt9terminatev() #31
  unreachable
}

; Function Attrs: mustprogress nounwind uwtable
define internal void @_ZNSt12_Vector_baseIN11opencv_test12_GLOBAL__N_19SGBMModesESaIS2_EED2Ev(ptr noundef nonnull align 8 dereferenceable(24) %0) unnamed_addr #9 align 2 personality ptr @__gxx_personality_v0 {
  %2 = alloca ptr, align 8
  store ptr %0, ptr %2, align 8, !tbaa !274
  %3 = load ptr, ptr %2, align 8
  %4 = getelementptr inbounds nuw %"struct.std::_Vector_base.59", ptr %3, i32 0, i32 0
  %5 = getelementptr inbounds nuw %"struct.std::_Vector_base<opencv_test::(anonymous namespace)::SGBMModes, std::allocator<opencv_test::(anonymous namespace)::SGBMModes>>::_Vector_impl_data", ptr %4, i32 0, i32 0
  %6 = load ptr, ptr %5, align 8, !tbaa !276
  %7 = getelementptr inbounds nuw %"struct.std::_Vector_base.59", ptr %3, i32 0, i32 0
  %8 = getelementptr inbounds nuw %"struct.std::_Vector_base<opencv_test::(anonymous namespace)::SGBMModes, std::allocator<opencv_test::(anonymous namespace)::SGBMModes>>::_Vector_impl_data", ptr %7, i32 0, i32 2
  %9 = load ptr, ptr %8, align 8, !tbaa !278
  %10 = getelementptr inbounds nuw %"struct.std::_Vector_base.59", ptr %3, i32 0, i32 0
  %11 = getelementptr inbounds nuw %"struct.std::_Vector_base<opencv_test::(anonymous namespace)::SGBMModes, std::allocator<opencv_test::(anonymous namespace)::SGBMModes>>::_Vector_impl_data", ptr %10, i32 0, i32 0
  %12 = load ptr, ptr %11, align 8, !tbaa !276
  %13 = ptrtoint ptr %9 to i64
  %14 = ptrtoint ptr %12 to i64
  %15 = sub i64 %13, %14
  %16 = sdiv exact i64 %15, 4
  invoke void @_ZNSt12_Vector_baseIN11opencv_test12_GLOBAL__N_19SGBMModesESaIS2_EE13_M_deallocateEPS2_m(ptr noundef nonnull align 8 dereferenceable(24) %3, ptr noundef %6, i64 noundef %16)
          to label %17 unwind label %19

17:                                               ; preds = %1
  %18 = getelementptr inbounds nuw %"struct.std::_Vector_base.59", ptr %3, i32 0, i32 0
  call void @_ZNSt15__new_allocatorIN11opencv_test12_GLOBAL__N_19SGBMModesEED2Ev(ptr noundef nonnull align 8 dereferenceable(24) %18) #3
  ret void

19:                                               ; preds = %1
  %20 = landingpad { ptr, i32 }
          catch ptr null
  %21 = extractvalue { ptr, i32 } %20, 0
  call void @__clang_call_terminate(ptr %21) #31
  unreachable
}

; Function Attrs: inlinehint mustprogress uwtable
define internal void @_ZSt8_DestroyIPN11opencv_test12_GLOBAL__N_19SGBMModesES2_EvT_S4_RSaIT0_E(ptr noundef %0, ptr noundef %1, ptr noundef nonnull align 1 dereferenceable(1) %2) #11 {
  %4 = alloca ptr, align 8
  %5 = alloca ptr, align 8
  %6 = alloca ptr, align 8
  store ptr %0, ptr %4, align 8, !tbaa !85
  store ptr %1, ptr %5, align 8, !tbaa !85
  store ptr %2, ptr %6, align 8, !tbaa !268
  %7 = load ptr, ptr %4, align 8, !tbaa !85
  %8 = load ptr, ptr %5, align 8, !tbaa !85
  call void @_ZSt8_DestroyIPN11opencv_test12_GLOBAL__N_19SGBMModesEEvT_S4_(ptr noundef %7, ptr noundef %8)
  ret void
}

; Function Attrs: mustprogress nounwind uwtable
define internal noundef nonnull align 1 dereferenceable(1) ptr @_ZNSt12_Vector_baseIN11opencv_test12_GLOBAL__N_19SGBMModesESaIS2_EE19_M_get_Tp_allocatorEv(ptr noundef nonnull align 8 dereferenceable(24) %0) #9 align 2 {
  %2 = alloca ptr, align 8
  store ptr %0, ptr %2, align 8, !tbaa !274
  %3 = load ptr, ptr %2, align 8
  %4 = getelementptr inbounds nuw %"struct.std::_Vector_base.59", ptr %3, i32 0, i32 0
  ret ptr %4
}

; Function Attrs: mustprogress nounwind uwtable
define internal void @_ZN7testing8internal23ParamGeneratorInterfaceIN11opencv_test12_GLOBAL__N_19SGBMModesEED2Ev(ptr noundef nonnull align 8 dereferenceable(8) %0) unnamed_addr #9 align 2 {
  %2 = alloca ptr, align 8
  store ptr %0, ptr %2, align 8, !tbaa !267
  ret void
}

; Function Attrs: mustprogress nounwind uwtable
define internal void @_ZNSt6vectorIN11opencv_test12_GLOBAL__N_19SGBMModesESaIS2_EED2Ev(ptr noundef nonnull align 8 dereferenceable(24) %0) unnamed_addr #9 align 2 personality ptr @__gxx_personality_v0 {
  %2 = alloca ptr, align 8
  store ptr %0, ptr %2, align 8, !tbaa !270
  %3 = load ptr, ptr %2, align 8
  %4 = getelementptr inbounds nuw %"struct.std::_Vector_base.59", ptr %3, i32 0, i32 0
  %5 = getelementptr inbounds nuw %"struct.std::_Vector_base<opencv_test::(anonymous namespace)::SGBMModes, std::allocator<opencv_test::(anonymous namespace)::SGBMModes>>::_Vector_impl_data", ptr %4, i32 0, i32 0
  %6 = load ptr, ptr %5, align 8, !tbaa !276
  %7 = getelementptr inbounds nuw %"struct.std::_Vector_base.59", ptr %3, i32 0, i32 0
  %8 = getelementptr inbounds nuw %"struct.std::_Vector_base<opencv_test::(anonymous namespace)::SGBMModes, std::allocator<opencv_test::(anonymous namespace)::SGBMModes>>::_Vector_impl_data", ptr %7, i32 0, i32 1
  %9 = load ptr, ptr %8, align 8, !tbaa !279
  %10 = call noundef nonnull align 1 dereferenceable(1) ptr @_ZNSt12_Vector_baseIN11opencv_test12_GLOBAL__N_19SGBMModesESaIS2_EE19_M_get_Tp_allocatorEv(ptr noundef nonnull align 8 dereferenceable(24) %3) #3
  invoke void @_ZSt8_DestroyIPN11opencv_test12_GLOBAL__N_19SGBMModesES2_EvT_S4_RSaIT0_E(ptr noundef %6, ptr noundef %9, ptr noundef nonnull align 1 dereferenceable(1) %10)
          to label %11 unwind label %12

11:                                               ; preds = %1
  call void @_ZNSt12_Vector_baseIN11opencv_test12_GLOBAL__N_19SGBMModesESaIS2_EED2Ev(ptr noundef nonnull align 8 dereferenceable(24) %3) #3
  ret void

12:                                               ; preds = %1
  %13 = landingpad { ptr, i32 }
          catch ptr null
  %14 = extractvalue { ptr, i32 } %13, 0
  call void @__clang_call_terminate(ptr %14) #31
  unreachable
}

; Function Attrs: mustprogress nounwind uwtable
define internal void @_ZN7testing8internal30ValuesInIteratorRangeGeneratorIN11opencv_test12_GLOBAL__N_19SGBMModesEED2Ev(ptr noundef nonnull align 8 dereferenceable(32) %0) unnamed_addr #9 align 2 {
  %2 = alloca ptr, align 8
  store ptr %0, ptr %2, align 8, !tbaa !265
  %3 = load ptr, ptr %2, align 8
  store ptr getelementptr inbounds inrange(-16, 32) ({ [6 x ptr] }, ptr @_ZTVN7testing8internal30ValuesInIteratorRangeGeneratorIN11opencv_test12_GLOBAL__N_19SGBMModesEEE, i32 0, i32 0, i32 2), ptr %3, align 8, !tbaa !20
  %4 = getelementptr inbounds nuw %"class.testing::internal::ValuesInIteratorRangeGenerator", ptr %3, i32 0, i32 1
  call void @_ZNSt6vectorIN11opencv_test12_GLOBAL__N_19SGBMModesESaIS2_EED2Ev(ptr noundef nonnull align 8 dereferenceable(24) %4) #3
  call void @_ZN7testing8internal23ParamGeneratorInterfaceIN11opencv_test12_GLOBAL__N_19SGBMModesEED2Ev(ptr noundef nonnull align 8 dereferenceable(8) %3) #3
  ret void
}